target datalayout = "e-m:e-p270:32:32-p271:32:32-p272:64:64-i64:64-i128:128-f80:128-n8:16:32:64-S128"
target triple = "x86_64-pc-linux-gnu"

%struct.refspec_item = type { i8, ptr, ptr, ptr }

; Function Attrs: nounwind uwtable
define dso_local void @refspec_item_clear(ptr noundef %0) #0 {
  %2 = alloca ptr, align 8
  store ptr %0, ptr %2, align 8, !tbaa !4
  br label %3

3:                                                ; preds = %1
  %4 = load ptr, ptr %2, align 8, !tbaa !4
  %5 = getelementptr inbounds nuw %struct.refspec_item, ptr %4, i32 0, i32 1
  %6 = load ptr, ptr %5, align 8, !tbaa !19
  call void @free(ptr noundef %6) #10
  %7 = load ptr, ptr %2, align 8, !tbaa !4
  %8 = getelementptr inbounds nuw %struct.refspec_item, ptr %7, i32 0, i32 1
  store ptr null, ptr %8, align 8, !tbaa !19
  br label %9

9:                                                ; preds = %3
  br label %10

10:                                               ; preds = %9
  %11 = load ptr, ptr %2, align 8, !tbaa !4
  %12 = getelementptr inbounds nuw %struct.refspec_item, ptr %11, i32 0, i32 2
  %13 = load ptr, ptr %12, align 8, !tbaa !18
  call void @free(ptr noundef %13) #10
  %14 = load ptr, ptr %2, align 8, !tbaa !4
  %15 = getelementptr inbounds nuw %struct.refspec_item, ptr %14, i32 0, i32 2
  store ptr null, ptr %15, align 8, !tbaa !18
  br label %16

16:                                               ; preds = %10
  br label %17

17:                                               ; preds = %16
  %18 = load ptr, ptr %2, align 8, !tbaa !4
  %19 = getelementptr inbounds nuw %struct.refspec_item, ptr %18, i32 0, i32 3
  %20 = load ptr, ptr %19, align 8, !tbaa !13
  call void @free(ptr noundef %20) #10
  %21 = load ptr, ptr %2, align 8, !tbaa !4
  %22 = getelementptr inbounds nuw %struct.refspec_item, ptr %21, i32 0, i32 3
  store ptr null, ptr %22, align 8, !tbaa !13
  br label %23

23:                                               ; preds = %17
  %24 = load ptr, ptr %2, align 8, !tbaa !4
  %25 = load i8, ptr %24, align 8
  %26 = and i8 %25, -2
  %27 = or i8 %26, 0
  store i8 %27, ptr %24, align 8
  %28 = load ptr, ptr %2, align 8, !tbaa !4
  %29 = load i8, ptr %28, align 8
  %30 = and i8 %29, -3
  %31 = or i8 %30, 0
  store i8 %31, ptr %28, align 8
  %32 = load ptr, ptr %2, align 8, !tbaa !4
  %33 = load i8, ptr %32, align 8
  %34 = and i8 %33, -5
  %35 = or i8 %34, 0
  store i8 %35, ptr %32, align 8
  %36 = load ptr, ptr %2, align 8, !tbaa !4
  %37 = load i8, ptr %36, align 8
  %38 = and i8 %37, -9
  %39 = or i8 %38, 0
  store i8 %39, ptr %36, align 8
  ret void
}