; Function Attrs: mustprogress nounwind willreturn uwtable
define dso_local void @refspec_item_clear(ptr noundef captures(none) %0) local_unnamed_addr #5 {
  %2 = getelementptr inbounds nuw i8, ptr %0, i64 8
  %3 = load ptr, ptr %2, align 8, !tbaa !13
  tail call void @free(ptr noundef %3) #13
  store ptr null, ptr %2, align 8, !tbaa !13
  %4 = getelementptr inbounds nuw i8, ptr %0, i64 16
  %5 = load ptr, ptr %4, align 8, !tbaa !12
  tail call void @free(ptr noundef %5) #13
  store ptr null, ptr %4, align 8, !tbaa !12
  %6 = getelementptr inbounds nuw i8, ptr %0, i64 24
  %7 = load ptr, ptr %6, align 8, !tbaa !4
  tail call void @free(ptr noundef %7) #13
  store ptr null, ptr %6, align 8, !tbaa !4
  %8 = load i8, ptr %0, align 8
  %9 = and i8 %8, -16
  store i8 %9, ptr %0, align 8
  ret void
}